target datalayout = "e-m:e-p270:32:32-p271:32:32-p272:64:64-i64:64-i128:128-f80:128-n8:16:32:64-S128"
target triple = "x86_64-pc-linux-gnu"

%struct.AVChannelLayout = type { i32, i32, %union.anon, ptr }
%union.anon = type { i64 }
%struct.AACDecContext = type { ptr, ptr, %struct.AACDecDSP, %struct.AACDecProc, ptr, i32, %struct.DynamicRangeControl, [4 x [64 x ptr]], [4 x [64 x ptr]], i32, i32, [8 x i8], %union.anon.0, %union.anon.1, ptr, ptr, ptr, ptr, ptr, ptr, ptr, ptr, ptr, ptr, ptr, ptr, ptr, ptr, ptr, ptr, ptr, ptr, %union.anon.2, i32, [64 x ptr], i32, i32, i32, [2 x %struct.OutputConfiguration], i32, i32, i32, i32, i32, i32, [8 x i8] }
%struct.AACDecDSP = type { ptr, ptr, ptr, ptr, ptr, ptr, ptr, ptr, ptr, ptr, ptr, ptr, ptr, ptr, ptr }
%struct.AACDecProc = type { ptr, ptr, ptr, ptr, ptr, ptr }
%struct.DynamicRangeControl = type { i32, [17 x i32], [17 x i32], [64 x i32], i32, i32, [17 x i32], i32 }
%union.anon.0 = type { [1024 x i32] }
%union.anon.1 = type { [128 x i32] }
%union.anon.2 = type { ptr }
%struct.OutputConfiguration = type { %struct.MPEG4AudioConfig, [256 x [3 x i8]], i32, %struct.AVChannelLayout, i32, %struct.AACUSACConfig }
%struct.MPEG4AudioConfig = type { i32, i32, i32, i32, i32, i32, i32, i32, i32, i32, i32, i32 }
%struct.AACUSACConfig = type { i8, i16, i16, [64 x %struct.AACUsacElemConfig], i32, %struct.anon.6 }
%struct.AACUsacElemConfig = type { i32, i8, i8, %struct.anon, %struct.anon.4, %struct.anon.5 }
%struct.anon = type { i32, i8, %struct.anon.3 }
%struct.anon.3 = type { i8, i8, i8, i8, i8, i8, i8, i8 }
%struct.anon.4 = type { i8, i8, i8, i8, i8, i8, i8, i8, i8 }
%struct.anon.5 = type { i32, i8, i32, i32, ptr }
%struct.anon.6 = type { i8, i8, [64 x %struct.AACUSACLoudnessInfo], i8, i8, [64 x %struct.AACUSACLoudnessInfo] }
%struct.AACUSACLoudnessInfo = type <{ i16, %struct.anon.7, %struct.anon.8, i8, [16 x %struct.anon.9], i8 }>
%struct.anon.7 = type { i16 }
%struct.anon.8 = type { i32 }
%struct.anon.9 = type { i8, i8, i8 }
%struct.SingleChannelElement = type { %struct.IndividualChannelStream, %struct.AACUsacElemData, %struct.TemporalNoiseShaping, [128 x i32], [128 x i32], %union.anon.15, [12 x i8], %union.anon.16, %union.anon.17, %union.anon.18, %union.anon.19, %union.anon.20, %union.anon.21, %union.anon.22 }
%struct.IndividualChannelStream = type { i8, [2 x i32], [2 x i8], i32, i32, [8 x i8], %struct.LongTermPrediction, ptr, i32, i32, i32, i32, i32, i32, [41 x i8], [8 x i8] }
%struct.LongTermPrediction = type { i8, i16, %union.anon.10, [40 x i8] }
%union.anon.10 = type { i32 }
%struct.AACUsacElemData = type { i8, i8, i8, [16 x i8], %struct.anon.11, %struct.anon.12, %struct.anon.13, %struct.AACArithState }
%struct.anon.11 = type { i16, i32 }
%struct.anon.12 = type { i32, i8 }
%struct.anon.13 = type { i8, [8 x [8 x i32]] }
%struct.AACArithState = type { [513 x i8], i32, [4 x i8], i16 }
%struct.TemporalNoiseShaping = type { i32, [8 x i32], [8 x [4 x i32]], [8 x [4 x i32]], [8 x [4 x i32]], %union.anon.14 }
%union.anon.14 = type { [8 x [4 x [20 x i32]]] }
%union.anon.15 = type { [128 x i32] }
%union.anon.16 = type { [1024 x i32] }
%union.anon.17 = type { [1024 x i32] }
%union.anon.18 = type { [1536 x i32] }
%union.anon.19 = type { [2048 x i32] }
%union.anon.20 = type { [3072 x i32] }
%union.anon.21 = type { ptr }
%union.anon.22 = type { ptr }
%struct.ChannelElement = type { i32, i8, [128 x i8], [11 x i8], [2 x %struct.SingleChannelElement], %struct.ChannelCoupling, [8 x i8], %struct.AACUsacStereo }
%struct.ChannelCoupling = type { i32, i32, [8 x i32], [8 x i32], [8 x i32], %union.anon.23 }
%union.anon.23 = type { [16 x [120 x i32]] }
%struct.AACUsacStereo = type { i8, i8, i8, i8, i8, i8, i8, i8, [128 x i8], [8 x i8], %union.anon.24, %union.anon.25, %union.anon.26, %union.anon.27, %union.anon.28, %union.anon.29, %union.anon.30 }
%union.anon.24 = type { [1024 x i32] }
%union.anon.25 = type { [1024 x i32] }
%union.anon.26 = type { [1024 x i32] }
%union.anon.27 = type { [1024 x i32] }
%union.anon.28 = type { [1024 x i32] }
%union.anon.29 = type { [1024 x i32] }
%union.anon.30 = type { [1024 x i32] }

@.str = private unnamed_addr constant [55 x i8] c"Dependent coupling is not supported together with LTP\0A\00", align 1

; Function Attrs: nounwind uwtable
define internal void @apply_dependent_coupling(ptr noundef %0, ptr noundef %1, ptr noundef %2, i32 noundef %3) #3 {
  %5 = alloca ptr, align 8
  %6 = alloca ptr, align 8
  %7 = alloca ptr, align 8
  %8 = alloca i32, align 4
  %9 = alloca ptr, align 8
  %10 = alloca ptr, align 8
  %11 = alloca ptr, align 8
  %12 = alloca ptr, align 8
  %13 = alloca i32, align 4
  %14 = alloca i32, align 4
  %15 = alloca i32, align 4
  %16 = alloca i32, align 4
  %17 = alloca i32, align 4
  %18 = alloca i32, align 4
  %19 = alloca float, align 4
  store ptr %0, ptr %5, align 8, !tbaa !29
  store ptr %1, ptr %6, align 8, !tbaa !66
  store ptr %2, ptr %7, align 8, !tbaa !83
  store i32 %3, ptr %8, align 4, !tbaa !73
  call void @llvm.lifetime.start.p0(i64 8, ptr %9) #11
  %20 = load ptr, ptr %7, align 8, !tbaa !83
  %21 = getelementptr inbounds nuw %struct.ChannelElement, ptr %20, i32 0, i32 4
  %22 = getelementptr inbounds [2 x %struct.SingleChannelElement], ptr %21, i64 0, i64 0
  %23 = getelementptr inbounds nuw %struct.SingleChannelElement, ptr %22, i32 0, i32 0
  store ptr %23, ptr %9, align 8, !tbaa !68
  call void @llvm.lifetime.start.p0(i64 8, ptr %10) #11
  %24 = load ptr, ptr %9, align 8, !tbaa !68
  %25 = getelementptr inbounds nuw %struct.IndividualChannelStream, ptr %24, i32 0, i32 7
  %26 = load ptr, ptr %25, align 8, !tbaa !85
  store ptr %26, ptr %10, align 8, !tbaa !86
  call void @llvm.lifetime.start.p0(i64 8, ptr %11) #11
  %27 = load ptr, ptr %6, align 8, !tbaa !66
  %28 = getelementptr inbounds nuw %struct.SingleChannelElement, ptr %27, i32 0, i32 7
  %29 = getelementptr inbounds [1024 x float], ptr %28, i64 0, i64 0
  store ptr %29, ptr %11, align 8, !tbaa !71
  call void @llvm.lifetime.start.p0(i64 8, ptr %12) #11
  %30 = load ptr, ptr %7, align 8, !tbaa !83
  %31 = getelementptr inbounds nuw %struct.ChannelElement, ptr %30, i32 0, i32 4
  %32 = getelementptr inbounds [2 x %struct.SingleChannelElement], ptr %31, i64 0, i64 0
  %33 = getelementptr inbounds nuw %struct.SingleChannelElement, ptr %32, i32 0, i32 7
  %34 = getelementptr inbounds [1024 x float], ptr %33, i64 0, i64 0
  store ptr %34, ptr %12, align 8, !tbaa !71
  call void @llvm.lifetime.start.p0(i64 4, ptr %13) #11
  call void @llvm.lifetime.start.p0(i64 4, ptr %14) #11
  call void @llvm.lifetime.start.p0(i64 4, ptr %15) #11
  call void @llvm.lifetime.start.p0(i64 4, ptr %16) #11
  call void @llvm.lifetime.start.p0(i64 4, ptr %17) #11
  store i32 0, ptr %17, align 4, !tbaa !73
  %35 = load ptr, ptr %5, align 8, !tbaa !29
  %36 = getelementptr inbounds nuw %struct.AACDecContext, ptr %35, i32 0, i32 38
  %37 = getelementptr inbounds [2 x %struct.OutputConfiguration], ptr %36, i64 0, i64 1
  %38 = getelementptr inbounds nuw %struct.OutputConfiguration, ptr %37, i32 0, i32 0
  %39 = getelementptr inbounds nuw %struct.MPEG4AudioConfig, ptr %38, i32 0, i32 0
  %40 = load i32, ptr %39, align 8, !tbaa !170
  %41 = icmp eq i32 %40, 4
  br i1 %41, label %42, label %46

42:                                               ; preds = %4
  %43 = load ptr, ptr %5, align 8, !tbaa !29
  %44 = getelementptr inbounds nuw %struct.AACDecContext, ptr %43, i32 0, i32 1
  %45 = load ptr, ptr %44, align 8, !tbaa !171
  call void (ptr, i32, ptr, ...) @av_log(ptr noundef %45, i32 noundef 16, ptr noundef @.str)
  store i32 1, ptr %18, align 4
  br label %169

46:                                               ; preds = %4
  store i32 0, ptr %13, align 4, !tbaa !73
  br label %47

47:                                               ; preds = %165, %46
  %48 = load i32, ptr %13, align 4, !tbaa !73
  %49 = load ptr, ptr %9, align 8, !tbaa !68
  %50 = getelementptr inbounds nuw %struct.IndividualChannelStream, ptr %49, i32 0, i32 3
  %51 = load i32, ptr %50, align 8, !tbaa !74
  %52 = icmp slt i32 %48, %51
  br i1 %52, label %53, label %168

53:                                               ; preds = %47
  store i32 0, ptr %14, align 4, !tbaa !73
  br label %54

54:                                               ; preds = %137, %53
  %55 = load i32, ptr %14, align 4, !tbaa !73
  %56 = load ptr, ptr %9, align 8, !tbaa !68
  %57 = getelementptr inbounds nuw %struct.IndividualChannelStream, ptr %56, i32 0, i32 0
  %58 = load i8, ptr %57, align 8, !tbaa !78
  %59 = zext i8 %58 to i32
  %60 = icmp slt i32 %55, %59
  br i1 %60, label %61, label %142

61:                                               ; preds = %54
  %62 = load ptr, ptr %7, align 8, !tbaa !83
  %63 = getelementptr inbounds nuw %struct.ChannelElement, ptr %62, i32 0, i32 4
  %64 = getelementptr inbounds [2 x %struct.SingleChannelElement], ptr %63, i64 0, i64 0
  %65 = getelementptr inbounds nuw %struct.SingleChannelElement, ptr %64, i32 0, i32 3
  %66 = load i32, ptr %17, align 4, !tbaa !73
  %67 = sext i32 %66 to i64
  %68 = getelementptr inbounds [128 x i32], ptr %65, i64 0, i64 %67
  %69 = load i32, ptr %68, align 4, !tbaa !73
  %70 = icmp ne i32 %69, 0
  br i1 %70, label %71, label %136

71:                                               ; preds = %61
  call void @llvm.lifetime.start.p0(i64 4, ptr %19) #11
  %72 = load ptr, ptr %7, align 8, !tbaa !83
  %73 = getelementptr inbounds nuw %struct.ChannelElement, ptr %72, i32 0, i32 5
  %74 = getelementptr inbounds nuw %struct.ChannelCoupling, ptr %73, i32 0, i32 5
  %75 = load i32, ptr %8, align 4, !tbaa !73
  %76 = sext i32 %75 to i64
  %77 = getelementptr inbounds [16 x [120 x float]], ptr %74, i64 0, i64 %76
  %78 = load i32, ptr %17, align 4, !tbaa !73
  %79 = sext i32 %78 to i64
  %80 = getelementptr inbounds [120 x float], ptr %77, i64 0, i64 %79
  %81 = load float, ptr %80, align 4, !tbaa !40
  store float %81, ptr %19, align 4, !tbaa !79
  store i32 0, ptr %15, align 4, !tbaa !73
  br label %82

82:                                               ; preds = %132, %71
  %83 = load i32, ptr %15, align 4, !tbaa !73
  %84 = load ptr, ptr %9, align 8, !tbaa !68
  %85 = getelementptr inbounds nuw %struct.IndividualChannelStream, ptr %84, i32 0, i32 5
  %86 = load i32, ptr %13, align 4, !tbaa !73
  %87 = sext i32 %86 to i64
  %88 = getelementptr inbounds [8 x i8], ptr %85, i64 0, i64 %87
  %89 = load i8, ptr %88, align 1, !tbaa !40
  %90 = zext i8 %89 to i32
  %91 = icmp slt i32 %83, %90
  br i1 %91, label %92, label %135

92:                                               ; preds = %82
  %93 = load ptr, ptr %10, align 8, !tbaa !86
  %94 = load i32, ptr %14, align 4, !tbaa !73
  %95 = sext i32 %94 to i64
  %96 = getelementptr inbounds i16, ptr %93, i64 %95
  %97 = load i16, ptr %96, align 2, !tbaa !93
  %98 = zext i16 %97 to i32
  store i32 %98, ptr %16, align 4, !tbaa !73
  br label %99

99:                                               ; preds = %128, %92
  %100 = load i32, ptr %16, align 4, !tbaa !73
  %101 = load ptr, ptr %10, align 8, !tbaa !86
  %102 = load i32, ptr %14, align 4, !tbaa !73
  %103 = add nsw i32 %102, 1
  %104 = sext i32 %103 to i64
  %105 = getelementptr inbounds i16, ptr %101, i64 %104
  %106 = load i16, ptr %105, align 2, !tbaa !93
  %107 = zext i16 %106 to i32
  %108 = icmp slt i32 %100, %107
  br i1 %108, label %109, label %131

109:                                              ; preds = %99
  %110 = load float, ptr %19, align 4, !tbaa !79
  %111 = load ptr, ptr %12, align 8, !tbaa !71
  %112 = load i32, ptr %15, align 4, !tbaa !73
  %113 = mul nsw i32 %112, 128
  %114 = load i32, ptr %16, align 4, !tbaa !73
  %115 = add nsw i32 %113, %114
  %116 = sext i32 %115 to i64
  %117 = getelementptr inbounds float, ptr %111, i64 %116
  %118 = load float, ptr %117, align 4, !tbaa !79
  %119 = load ptr, ptr %11, align 8, !tbaa !71
  %120 = load i32, ptr %15, align 4, !tbaa !73
  %121 = mul nsw i32 %120, 128
  %122 = load i32, ptr %16, align 4, !tbaa !73
  %123 = add nsw i32 %121, %122
  %124 = sext i32 %123 to i64
  %125 = getelementptr inbounds float, ptr %119, i64 %124
  %126 = load float, ptr %125, align 4, !tbaa !79
  %127 = call nsz float @llvm.fmuladd.f32(float %110, float %118, float %126)
  store float %127, ptr %125, align 4, !tbaa !79
  br label %128

128:                                              ; preds = %109
  %129 = load i32, ptr %16, align 4, !tbaa !73
  %130 = add nsw i32 %129, 1
  store i32 %130, ptr %16, align 4, !tbaa !73
  br label %99, !llvm.loop !172

131:                                              ; preds = %99
  br label %132

132:                                              ; preds = %131
  %133 = load i32, ptr %15, align 4, !tbaa !73
  %134 = add nsw i32 %133, 1
  store i32 %134, ptr %15, align 4, !tbaa !73
  br label %82, !llvm.loop !173

135:                                              ; preds = %82
  call void @llvm.lifetime.end.p0(i64 4, ptr %19) #11
  br label %136

136:                                              ; preds = %135, %61
  br label %137

137:                                              ; preds = %136
  %138 = load i32, ptr %14, align 4, !tbaa !73
  %139 = add nsw i32 %138, 1
  store i32 %139, ptr %14, align 4, !tbaa !73
  %140 = load i32, ptr %17, align 4, !tbaa !73
  %141 = add nsw i32 %140, 1
  store i32 %141, ptr %17, align 4, !tbaa !73
  br label %54, !llvm.loop !174

142:                                              ; preds = %54
  %143 = load ptr, ptr %9, align 8, !tbaa !68
  %144 = getelementptr inbounds nuw %struct.IndividualChannelStream, ptr %143, i32 0, i32 5
  %145 = load i32, ptr %13, align 4, !tbaa !73
  %146 = sext i32 %145 to i64
  %147 = getelementptr inbounds [8 x i8], ptr %144, i64 0, i64 %146
  %148 = load i8, ptr %147, align 1, !tbaa !40
  %149 = zext i8 %148 to i32
  %150 = mul nsw i32 %149, 128
  %151 = load ptr, ptr %11, align 8, !tbaa !71
  %152 = sext i32 %150 to i64
  %153 = getelementptr inbounds float, ptr %151, i64 %152
  store ptr %153, ptr %11, align 8, !tbaa !71
  %154 = load ptr, ptr %9, align 8, !tbaa !68
  %155 = getelementptr inbounds nuw %struct.IndividualChannelStream, ptr %154, i32 0, i32 5
  %156 = load i32, ptr %13, align 4, !tbaa !73
  %157 = sext i32 %156 to i64
  %158 = getelementptr inbounds [8 x i8], ptr %155, i64 0, i64 %157
  %159 = load i8, ptr %158, align 1, !tbaa !40
  %160 = zext i8 %159 to i32
  %161 = mul nsw i32 %160, 128
  %162 = load ptr, ptr %12, align 8, !tbaa !71
  %163 = sext i32 %161 to i64
  %164 = getelementptr inbounds float, ptr %162, i64 %163
  store ptr %164, ptr %12, align 8, !tbaa !71
  br label %165

165:                                              ; preds = %142
  %166 = load i32, ptr %13, align 4, !tbaa !73
  %167 = add nsw i32 %166, 1
  store i32 %167, ptr %13, align 4, !tbaa !73
  br label %47, !llvm.loop !175

168:                                              ; preds = %47
  store i32 0, ptr %18, align 4
  br label %169

169:                                              ; preds = %168, %42
  call void @llvm.lifetime.end.p0(i64 4, ptr %17) #11
  call void @llvm.lifetime.end.p0(i64 4, ptr %16) #11
  call void @llvm.lifetime.end.p0(i64 4, ptr %15) #11
  call void @llvm.lifetime.end.p0(i64 4, ptr %14) #11
  call void @llvm.lifetime.end.p0(i64 4, ptr %13) #11
  call void @llvm.lifetime.end.p0(i64 8, ptr %12) #11
  call void @llvm.lifetime.end.p0(i64 8, ptr %11) #11
  call void @llvm.lifetime.end.p0(i64 8, ptr %10) #11
  call void @llvm.lifetime.end.p0(i64 8, ptr %9) #11
  %170 = load i32, ptr %18, align 4
  switch i32 %170, label %172 [
    i32 0, label %171
    i32 1, label %171
  ]

171:                                              ; preds = %169, %169
  ret void

172:                                              ; preds = %169
  unreachable
}