; Function Attrs: nounwind uwtable
define internal void @apply_dependent_coupling(ptr noundef readonly captures(none) %0, ptr noundef captures(none) %1, ptr noundef readonly captures(none) %2, i32 noundef %3) #3 {
  %5 = getelementptr inbounds nuw i8, ptr %2, i64 144
  %6 = getelementptr inbounds nuw i8, ptr %2, i64 224
  %7 = load ptr, ptr %6, align 8, !tbaa !69
  %8 = getelementptr inbounds nuw i8, ptr %0, i64 22472
  %9 = load i32, ptr %8, align 8, !tbaa !162
  %10 = icmp eq i32 %9, 4
  br i1 %10, label %11, label %14

11:                                               ; preds = %4
  %12 = getelementptr inbounds nuw i8, ptr %0, i64 8
  %13 = load ptr, ptr %12, align 8, !tbaa !163
  tail call void (ptr, i32, ptr, ...) @av_log(ptr noundef %13, i32 noundef 16, ptr noundef nonnull @.str) #12
  br label %.loopexit46

14:                                               ; preds = %4
  %15 = getelementptr inbounds nuw i8, ptr %2, i64 160
  %16 = load i32, ptr %15, align 8, !tbaa !59
  %17 = icmp sgt i32 %16, 0
  br i1 %17, label %.preheader.lr.ph, label %.loopexit46

.preheader.lr.ph:                                 ; preds = %14
  %18 = load i8, ptr %5, align 8, !tbaa !63
  %.not = icmp eq i8 %18, 0
  %19 = getelementptr inbounds nuw i8, ptr %2, i64 4116
  %20 = getelementptr inbounds nuw i8, ptr %2, i64 80952
  %21 = sext i32 %3 to i64
  %22 = getelementptr inbounds nuw i8, ptr %2, i64 168
  br i1 %.not, label %.loopexit46, label %.preheader.us.preheader

.preheader.us.preheader:                          ; preds = %.preheader.lr.ph
  %23 = getelementptr inbounds nuw i8, ptr %2, i64 5664
  %24 = getelementptr inbounds nuw i8, ptr %1, i64 5520
  %wide.trip.count82 = zext nneg i32 %16 to i64
  %wide.trip.count77 = zext i8 %18 to i64
  br label %.preheader.us

.preheader.us:                                    ; preds = %.preheader.us.preheader, %._crit_edge.us62
  %indvars.iv79 = phi i64 [ 0, %.preheader.us.preheader ], [ %indvars.iv.next80, %._crit_edge.us62 ]
  %.057.us = phi ptr [ %24, %.preheader.us.preheader ], [ %54, %._crit_edge.us62 ]
  %.04056.us = phi i64 [ 0, %.preheader.us.preheader ], [ %indvars.iv.next71, %._crit_edge.us62 ]
  %.04554.us = phi ptr [ %23, %.preheader.us.preheader ], [ %55, %._crit_edge.us62 ]
  %25 = getelementptr inbounds nuw [8 x i8], ptr %22, i64 0, i64 %indvars.iv79
  %sext = shl i64 %.04056.us, 32
  %26 = ashr exact i64 %sext, 32
  br label %27

27:                                               ; preds = %.preheader.us, %.loopexit.us
  %indvars.iv72 = phi i64 [ 0, %.preheader.us ], [ %indvars.iv.next73, %.loopexit.us ]
  %indvars.iv70 = phi i64 [ %26, %.preheader.us ], [ %indvars.iv.next71, %.loopexit.us ]
  %28 = getelementptr inbounds [128 x i32], ptr %19, i64 0, i64 %indvars.iv70
  %29 = load i32, ptr %28, align 4, !tbaa !64
  %.not.us = icmp eq i32 %29, 0
  br i1 %.not.us, label %.loopexit.us, label %30

30:                                               ; preds = %27
  %31 = getelementptr inbounds [16 x [120 x float]], ptr %20, i64 0, i64 %21, i64 %indvars.iv70
  %32 = load float, ptr %31, align 4, !tbaa !58
  %33 = load i8, ptr %25, align 1, !tbaa !58
  %.not63 = icmp eq i8 %33, 0
  br i1 %.not63, label %.loopexit.us, label %.lr.ph50.us

.loopexit.us:                                     ; preds = %._crit_edge.us.us, %.lr.ph50.us, %30, %27
  %indvars.iv.next73 = add nuw nsw i64 %indvars.iv72, 1
  %indvars.iv.next71 = add nsw i64 %indvars.iv70, 1
  %exitcond78.not = icmp eq i64 %indvars.iv.next73, %wide.trip.count77
  br i1 %exitcond78.not, label %._crit_edge.us62, label %27, !llvm.loop !164

.lr.ph50.us:                                      ; preds = %30
  %34 = getelementptr inbounds nuw i16, ptr %7, i64 %indvars.iv72
  %35 = load i16, ptr %34, align 2, !tbaa !77
  %36 = getelementptr inbounds nuw i8, ptr %34, i64 2
  %37 = load i16, ptr %36, align 2, !tbaa !77
  %38 = icmp ult i16 %35, %37
  br i1 %38, label %.lr.ph.us.us.preheader, label %.loopexit.us

.lr.ph.us.us.preheader:                           ; preds = %.lr.ph50.us
  %39 = zext i16 %35 to i64
  %wide.trip.count = zext i16 %37 to i64
  br label %.lr.ph.us.us

.lr.ph.us.us:                                     ; preds = %.lr.ph.us.us.preheader, %._crit_edge.us.us
  %indvars.iv67 = phi i64 [ 0, %.lr.ph.us.us.preheader ], [ %indvars.iv.next68, %._crit_edge.us.us ]
  %40 = shl nuw nsw i64 %indvars.iv67, 7
  br label %41

41:                                               ; preds = %41, %.lr.ph.us.us
  %indvars.iv = phi i64 [ %indvars.iv.next, %41 ], [ %39, %.lr.ph.us.us ]
  %42 = add nuw nsw i64 %indvars.iv, %40
  %43 = getelementptr inbounds nuw float, ptr %.04554.us, i64 %42
  %44 = load float, ptr %43, align 4, !tbaa !65
  %45 = getelementptr inbounds nuw float, ptr %.057.us, i64 %42
  %46 = load float, ptr %45, align 4, !tbaa !65
  %47 = tail call nsz float @llvm.fmuladd.f32(float %32, float %44, float %46)
  store float %47, ptr %45, align 4, !tbaa !65
  %indvars.iv.next = add nuw nsw i64 %indvars.iv, 1
  %exitcond.not = icmp eq i64 %indvars.iv.next, %wide.trip.count
  br i1 %exitcond.not, label %._crit_edge.us.us, label %41, !llvm.loop !165

._crit_edge.us.us:                                ; preds = %41
  %indvars.iv.next68 = add nuw nsw i64 %indvars.iv67, 1
  %48 = load i8, ptr %25, align 1, !tbaa !58
  %49 = zext i8 %48 to i64
  %50 = icmp samesign ult i64 %indvars.iv.next68, %49
  br i1 %50, label %.lr.ph.us.us, label %.loopexit.us, !llvm.loop !166

._crit_edge.us62:                                 ; preds = %.loopexit.us
  %51 = load i8, ptr %25, align 1, !tbaa !58
  %52 = zext i8 %51 to i64
  %53 = shl nuw nsw i64 %52, 7
  %54 = getelementptr inbounds nuw float, ptr %.057.us, i64 %53
  %55 = getelementptr inbounds nuw float, ptr %.04554.us, i64 %53
  %indvars.iv.next80 = add nuw nsw i64 %indvars.iv79, 1
  %exitcond83.not = icmp eq i64 %indvars.iv.next80, %wide.trip.count82
  br i1 %exitcond83.not, label %.loopexit46, label %.preheader.us, !llvm.loop !167

.loopexit46:                                      ; preds = %._crit_edge.us62, %.preheader.lr.ph, %14, %11
  ret void
}